target datalayout = "e-m:e-p270:32:32-p271:32:32-p272:64:64-i64:64-i128:128-f80:128-n8:16:32:64-S128"
target triple = "x86_64-pc-linux-gnu"

%struct.PageCounters = type { i64, i32, i32, i64, i64 }

@sort_by = internal global i32 0, align 4
@.str.12 = private unnamed_addr constant [35 x i8] c"../qemu/contrib/plugins/hotpages.c\00", align 1
@__func__.cmp_access_count = private unnamed_addr constant [17 x i8] c"cmp_access_count\00", align 1

; Function Attrs: nounwind sspstrong uwtable
define internal i32 @cmp_access_count(ptr noundef %0, ptr noundef %1) #0 {
  %3 = alloca ptr, align 8
  %4 = alloca ptr, align 8
  %5 = alloca ptr, align 8
  %6 = alloca ptr, align 8
  %7 = alloca i32, align 4
  store ptr %0, ptr %3, align 8
  store ptr %1, ptr %4, align 8
  call void @llvm.lifetime.start.p0(i64 8, ptr %5) #9
  %8 = load ptr, ptr %3, align 8
  store ptr %8, ptr %5, align 8
  call void @llvm.lifetime.start.p0(i64 8, ptr %6) #9
  %9 = load ptr, ptr %4, align 8
  store ptr %9, ptr %6, align 8
  call void @llvm.lifetime.start.p0(i64 4, ptr %7) #9
  store i32 0, ptr %7, align 4, !annotation !3
  %10 = load i32, ptr @sort_by, align 4
  switch i32 %10, label %55 [
    i32 0, label %11
    i32 1, label %28
    i32 2, label %37
    i32 3, label %46
  ]

11:                                               ; preds = %2
  %12 = load ptr, ptr %5, align 8
  %13 = getelementptr inbounds nuw %struct.PageCounters, ptr %12, i32 0, i32 3
  %14 = load i64, ptr %13, align 8
  %15 = load ptr, ptr %5, align 8
  %16 = getelementptr inbounds nuw %struct.PageCounters, ptr %15, i32 0, i32 4
  %17 = load i64, ptr %16, align 8
  %18 = add i64 %14, %17
  %19 = load ptr, ptr %6, align 8
  %20 = getelementptr inbounds nuw %struct.PageCounters, ptr %19, i32 0, i32 3
  %21 = load i64, ptr %20, align 8
  %22 = load ptr, ptr %6, align 8
  %23 = getelementptr inbounds nuw %struct.PageCounters, ptr %22, i32 0, i32 4
  %24 = load i64, ptr %23, align 8
  %25 = add i64 %21, %24
  %26 = icmp ugt i64 %18, %25
  %27 = select i1 %26, i32 -1, i32 1
  store i32 %27, ptr %7, align 4
  br label %59

28:                                               ; preds = %2
  %29 = load ptr, ptr %5, align 8
  %30 = getelementptr inbounds nuw %struct.PageCounters, ptr %29, i32 0, i32 3
  %31 = load i64, ptr %30, align 8
  %32 = load ptr, ptr %6, align 8
  %33 = getelementptr inbounds nuw %struct.PageCounters, ptr %32, i32 0, i32 3
  %34 = load i64, ptr %33, align 8
  %35 = icmp ugt i64 %31, %34
  %36 = select i1 %35, i32 -1, i32 1
  store i32 %36, ptr %7, align 4
  br label %59

37:                                               ; preds = %2
  %38 = load ptr, ptr %5, align 8
  %39 = getelementptr inbounds nuw %struct.PageCounters, ptr %38, i32 0, i32 4
  %40 = load i64, ptr %39, align 8
  %41 = load ptr, ptr %6, align 8
  %42 = getelementptr inbounds nuw %struct.PageCounters, ptr %41, i32 0, i32 4
  %43 = load i64, ptr %42, align 8
  %44 = icmp ugt i64 %40, %43
  %45 = select i1 %44, i32 -1, i32 1
  store i32 %45, ptr %7, align 4
  br label %59

46:                                               ; preds = %2
  %47 = load ptr, ptr %5, align 8
  %48 = getelementptr inbounds nuw %struct.PageCounters, ptr %47, i32 0, i32 0
  %49 = load i64, ptr %48, align 8
  %50 = load ptr, ptr %6, align 8
  %51 = getelementptr inbounds nuw %struct.PageCounters, ptr %50, i32 0, i32 0
  %52 = load i64, ptr %51, align 8
  %53 = icmp ugt i64 %49, %52
  %54 = select i1 %53, i32 -1, i32 1
  store i32 %54, ptr %7, align 4
  br label %59

55:                                               ; preds = %2
  br label %56

56:                                               ; preds = %55
  call void @g_assertion_message_expr(ptr noundef null, ptr noundef @.str.12, i32 noundef 70, ptr noundef @__func__.cmp_access_count, ptr noundef null) #12
  unreachable

57:                                               ; No predecessors!
  br label %58

58:                                               ; preds = %57
  br label %59

59:                                               ; preds = %58, %46, %37, %28, %11
  %60 = load i32, ptr %7, align 4
  call void @llvm.lifetime.end.p0(i64 4, ptr %7) #9
  call void @llvm.lifetime.end.p0(i64 8, ptr %6) #9
  call void @llvm.lifetime.end.p0(i64 8, ptr %5) #9
  ret i32 %60
}