; Function Attrs: mustprogress nofree norecurse nosync nounwind sspstrong willreturn memory(read, inaccessiblemem: none) uwtable
define internal range(i32 -1, 2) i32 @cmp_access_count(ptr noundef readonly captures(none) %0, ptr noundef readonly captures(none) %1) #5 {
  %3 = load i32, ptr @sort_by, align 4
  switch i32 %3, label %default.unreachable [
    i32 0, label %4
    i32 1, label %16
    i32 2, label %22
    i32 3, label %28
  ]

4:                                                ; preds = %2
  %5 = getelementptr inbounds nuw i8, ptr %0, i64 16
  %6 = load i64, ptr %5, align 8
  %7 = getelementptr inbounds nuw i8, ptr %0, i64 24
  %8 = load i64, ptr %7, align 8
  %9 = add i64 %8, %6
  %10 = getelementptr inbounds nuw i8, ptr %1, i64 16
  %11 = load i64, ptr %10, align 8
  %12 = getelementptr inbounds nuw i8, ptr %1, i64 24
  %13 = load i64, ptr %12, align 8
  %14 = add i64 %13, %11
  %15 = icmp ugt i64 %9, %14
  br label %32

16:                                               ; preds = %2
  %17 = getelementptr inbounds nuw i8, ptr %0, i64 16
  %18 = load i64, ptr %17, align 8
  %19 = getelementptr inbounds nuw i8, ptr %1, i64 16
  %20 = load i64, ptr %19, align 8
  %21 = icmp ugt i64 %18, %20
  br label %32

22:                                               ; preds = %2
  %23 = getelementptr inbounds nuw i8, ptr %0, i64 24
  %24 = load i64, ptr %23, align 8
  %25 = getelementptr inbounds nuw i8, ptr %1, i64 24
  %26 = load i64, ptr %25, align 8
  %27 = icmp ugt i64 %24, %26
  br label %32

28:                                               ; preds = %2
  %29 = load i64, ptr %0, align 8
  %30 = load i64, ptr %1, align 8
  %31 = icmp ugt i64 %29, %30
  br label %32

default.unreachable:                              ; preds = %2
  unreachable

32:                                               ; preds = %28, %22, %16, %4
  %.sink = phi i1 [ %31, %28 ], [ %27, %22 ], [ %21, %16 ], [ %15, %4 ]
  %33 = select i1 %.sink, i32 -1, i32 1
  ret i32 %33
}